target datalayout = "e-m:e-p270:32:32-p271:32:32-p272:64:64-i64:64-i128:128-f80:128-n8:16:32:64-S128"
target triple = "x86_64-pc-linux-gnu"

%"class.cv::Rect_" = type { i32, i32, i32, i32 }
%"class.cv::Point_" = type { float, float }
%"class.cv::Mat" = type { i32, i32, i32, i32, ptr, ptr, ptr, ptr, ptr, ptr, %"struct.cv::MatSize", %"struct.cv::MatStep" }
%"struct.cv::MatSize" = type { ptr }
%"struct.cv::MatStep" = type { ptr, [2 x i64] }

; Function Attrs: inlinehint mustprogress nounwind uwtable
define linkonce_odr hidden void @_ZN2cv6Point_IfEC2Eff(ptr noundef nonnull align 4 dereferenceable(8) %0, float noundef %1, float noundef %2) unnamed_addr #5 comdat align 2 {
  %4 = alloca ptr, align 8
  %5 = alloca float, align 4
  %6 = alloca float, align 4
  store ptr %0, ptr %4, align 8, !tbaa !90
  store float %1, ptr %5, align 4, !tbaa !83
  store float %2, ptr %6, align 4, !tbaa !83
  %7 = load ptr, ptr %4, align 8
  %8 = getelementptr inbounds nuw %"class.cv::Point_", ptr %7, i32 0, i32 0
  %9 = load float, ptr %5, align 4, !tbaa !83
  store float %9, ptr %8, align 4, !tbaa !91
  %10 = getelementptr inbounds nuw %"class.cv::Point_", ptr %7, i32 0, i32 1
  %11 = load float, ptr %6, align 4, !tbaa !83
  store float %11, ptr %10, align 4, !tbaa !93
  ret void
}

; Function Attrs: inlinehint mustprogress nounwind uwtable
define linkonce_odr hidden void @_ZN2cv6Point_IfEC2Ev(ptr noundef nonnull align 4 dereferenceable(8) %0) unnamed_addr #5 comdat align 2 {
  %2 = alloca ptr, align 8
  store ptr %0, ptr %2, align 8, !tbaa !90
  %3 = load ptr, ptr %2, align 8
  %4 = getelementptr inbounds nuw %"class.cv::Point_", ptr %3, i32 0, i32 0
  store float 0.000000e+00, ptr %4, align 4, !tbaa !91
  %5 = getelementptr inbounds nuw %"class.cv::Point_", ptr %3, i32 0, i32 1
  store float 0.000000e+00, ptr %5, align 4, !tbaa !93
  ret void
}

; Function Attrs: mustprogress uwtable
define hidden noundef zeroext i1 @_ZN2cv4face18FacemarkKazemiImpl15convertToActualENS_5Rect_IiEERNS_3MatE(ptr noundef nonnull align 8 dereferenceable(216) %0, i64 %1, i64 %2, ptr noundef nonnull align 8 dereferenceable(96) %3) #9 align 2 personality ptr @__gxx_personality_v0 {
  %5 = alloca %"class.cv::Rect_", align 4
  %6 = alloca ptr, align 8
  %7 = alloca ptr, align 8
  %8 = alloca [3 x %"class.cv::Point_"], align 16
  %9 = alloca [3 x %"class.cv::Point_"], align 16
  %10 = alloca %"class.cv::Point_", align 4
  %11 = alloca %"class.cv::Point_", align 4
  %12 = alloca %"class.cv::Point_", align 4
  %13 = alloca %"class.cv::Point_", align 4
  %14 = alloca %"class.cv::Point_", align 4
  %15 = alloca %"class.cv::Point_", align 4
  %16 = alloca %"class.cv::Mat", align 8
  %17 = alloca ptr, align 8
  %18 = alloca i32, align 4
  %19 = getelementptr inbounds nuw { i64, i64 }, ptr %5, i32 0, i32 0
  store i64 %1, ptr %19, align 4
  %20 = getelementptr inbounds nuw { i64, i64 }, ptr %5, i32 0, i32 1
  store i64 %2, ptr %20, align 4
  store ptr %0, ptr %6, align 8, !tbaa !14
  store ptr %3, ptr %7, align 8, !tbaa !80
  call void @llvm.lifetime.start.p0(i64 24, ptr %8) #3
  %21 = getelementptr inbounds [3 x %"class.cv::Point_"], ptr %8, i32 0, i32 0
  %22 = getelementptr inbounds %"class.cv::Point_", ptr %21, i64 3
  br label %23

23:                                               ; preds = %23, %4
  %24 = phi ptr [ %21, %4 ], [ %25, %23 ]
  call void @_ZN2cv6Point_IfEC2Ev(ptr noundef nonnull align 4 dereferenceable(8) %24)
  %25 = getelementptr inbounds %"class.cv::Point_", ptr %24, i64 1
  %26 = icmp eq ptr %25, %22
  br i1 %26, label %27, label %23

27:                                               ; preds = %23
  call void @llvm.lifetime.start.p0(i64 24, ptr %9) #3
  %28 = getelementptr inbounds [3 x %"class.cv::Point_"], ptr %9, i32 0, i32 0
  %29 = getelementptr inbounds %"class.cv::Point_", ptr %28, i64 3
  br label %30

30:                                               ; preds = %30, %27
  %31 = phi ptr [ %28, %27 ], [ %32, %30 ]
  call void @_ZN2cv6Point_IfEC2Ev(ptr noundef nonnull align 4 dereferenceable(8) %31)
  %32 = getelementptr inbounds %"class.cv::Point_", ptr %31, i64 1
  %33 = icmp eq ptr %32, %29
  br i1 %33, label %34, label %30

34:                                               ; preds = %30
  call void @llvm.lifetime.start.p0(i64 8, ptr %10) #3
  call void @_ZN2cv6Point_IfEC2Eff(ptr noundef nonnull align 4 dereferenceable(8) %10, float noundef 0.000000e+00, float noundef 0.000000e+00)
  %35 = getelementptr inbounds [3 x %"class.cv::Point_"], ptr %8, i64 0, i64 0
  call void @llvm.memcpy.p0.p0.i64(ptr align 16 %35, ptr align 4 %10, i64 8, i1 false), !tbaa.struct !82
  call void @llvm.lifetime.end.p0(i64 8, ptr %10) #3
  call void @llvm.lifetime.start.p0(i64 8, ptr %11) #3
  call void @_ZN2cv6Point_IfEC2Eff(ptr noundef nonnull align 4 dereferenceable(8) %11, float noundef 1.000000e+00, float noundef 0.000000e+00)
  %36 = getelementptr inbounds [3 x %"class.cv::Point_"], ptr %8, i64 0, i64 1
  call void @llvm.memcpy.p0.p0.i64(ptr align 8 %36, ptr align 4 %11, i64 8, i1 false), !tbaa.struct !82
  call void @llvm.lifetime.end.p0(i64 8, ptr %11) #3
  call void @llvm.lifetime.start.p0(i64 8, ptr %12) #3
  call void @_ZN2cv6Point_IfEC2Eff(ptr noundef nonnull align 4 dereferenceable(8) %12, float noundef 0.000000e+00, float noundef 1.000000e+00)
  %37 = getelementptr inbounds [3 x %"class.cv::Point_"], ptr %8, i64 0, i64 2
  call void @llvm.memcpy.p0.p0.i64(ptr align 16 %37, ptr align 4 %12, i64 8, i1 false), !tbaa.struct !82
  call void @llvm.lifetime.end.p0(i64 8, ptr %12) #3
  call void @llvm.lifetime.start.p0(i64 8, ptr %13) #3
  %38 = getelementptr inbounds nuw %"class.cv::Rect_", ptr %5, i32 0, i32 0
  %39 = load i32, ptr %38, align 4, !tbaa !84
  %40 = sitofp i32 %39 to float
  %41 = getelementptr inbounds nuw %"class.cv::Rect_", ptr %5, i32 0, i32 1
  %42 = load i32, ptr %41, align 4, !tbaa !87
  %43 = sitofp i32 %42 to float
  call void @_ZN2cv6Point_IfEC2Eff(ptr noundef nonnull align 4 dereferenceable(8) %13, float noundef %40, float noundef %43)
  %44 = getelementptr inbounds [3 x %"class.cv::Point_"], ptr %9, i64 0, i64 0
  call void @llvm.memcpy.p0.p0.i64(ptr align 16 %44, ptr align 4 %13, i64 8, i1 false), !tbaa.struct !82
  call void @llvm.lifetime.end.p0(i64 8, ptr %13) #3
  call void @llvm.lifetime.start.p0(i64 8, ptr %14) #3
  %45 = getelementptr inbounds nuw %"class.cv::Rect_", ptr %5, i32 0, i32 0
  %46 = load i32, ptr %45, align 4, !tbaa !84
  %47 = sitofp i32 %46 to float
  %48 = getelementptr inbounds nuw %"class.cv::Rect_", ptr %5, i32 0, i32 2
  %49 = load i32, ptr %48, align 4, !tbaa !88
  %50 = sitofp i32 %49 to float
  %51 = fadd float %47, %50
  %52 = getelementptr inbounds nuw %"class.cv::Rect_", ptr %5, i32 0, i32 1
  %53 = load i32, ptr %52, align 4, !tbaa !87
  %54 = sitofp i32 %53 to float
  call void @_ZN2cv6Point_IfEC2Eff(ptr noundef nonnull align 4 dereferenceable(8) %14, float noundef %51, float noundef %54)
  %55 = getelementptr inbounds [3 x %"class.cv::Point_"], ptr %9, i64 0, i64 1
  call void @llvm.memcpy.p0.p0.i64(ptr align 8 %55, ptr align 4 %14, i64 8, i1 false), !tbaa.struct !82
  call void @llvm.lifetime.end.p0(i64 8, ptr %14) #3
  call void @llvm.lifetime.start.p0(i64 8, ptr %15) #3
  %56 = getelementptr inbounds nuw %"class.cv::Rect_", ptr %5, i32 0, i32 0
  %57 = load i32, ptr %56, align 4, !tbaa !84
  %58 = sitofp i32 %57 to float
  %59 = getelementptr inbounds nuw %"class.cv::Rect_", ptr %5, i32 0, i32 1
  %60 = load i32, ptr %59, align 4, !tbaa !87
  %61 = sitofp i32 %60 to float
  %62 = getelementptr inbounds nuw %"class.cv::Rect_", ptr %5, i32 0, i32 3
  %63 = load i32, ptr %62, align 4, !tbaa !89
  %64 = sitofp i32 %63 to float
  %65 = call float @llvm.fmuladd.f32(float 0x3FF4CCCCC0000000, float %64, float %61)
  call void @_ZN2cv6Point_IfEC2Eff(ptr noundef nonnull align 4 dereferenceable(8) %15, float noundef %58, float noundef %65)
  %66 = getelementptr inbounds [3 x %"class.cv::Point_"], ptr %9, i64 0, i64 2
  call void @llvm.memcpy.p0.p0.i64(ptr align 16 %66, ptr align 4 %15, i64 8, i1 false), !tbaa.struct !82
  call void @llvm.lifetime.end.p0(i64 8, ptr %15) #3
  call void @llvm.lifetime.start.p0(i64 96, ptr %16) #3
  %67 = getelementptr inbounds [3 x %"class.cv::Point_"], ptr %8, i64 0, i64 0
  %68 = getelementptr inbounds [3 x %"class.cv::Point_"], ptr %9, i64 0, i64 0
  call void @_ZN2cv18getAffineTransformEPKNS_6Point_IfEES3_(ptr dead_on_unwind writable sret(%"class.cv::Mat") align 8 %16, ptr noundef %67, ptr noundef %68)
  %69 = load ptr, ptr %7, align 8, !tbaa !80
  %70 = invoke noundef nonnull align 8 dereferenceable(96) ptr @_ZN2cv3MataSEOS0_(ptr noundef nonnull align 8 dereferenceable(96) %69, ptr noundef nonnull align 8 dereferenceable(96) %16)
          to label %71 unwind label %72

71:                                               ; preds = %34
  call void @_ZN2cv3MatD1Ev(ptr noundef nonnull align 8 dereferenceable(96) %16) #3
  call void @llvm.lifetime.end.p0(i64 96, ptr %16) #3
  call void @llvm.lifetime.end.p0(i64 24, ptr %9) #3
  call void @llvm.lifetime.end.p0(i64 24, ptr %8) #3
  ret i1 true

72:                                               ; preds = %34
  %73 = landingpad { ptr, i32 }
          cleanup
  %74 = extractvalue { ptr, i32 } %73, 0
  store ptr %74, ptr %17, align 8
  %75 = extractvalue { ptr, i32 } %73, 1
  store i32 %75, ptr %18, align 4
  call void @_ZN2cv3MatD1Ev(ptr noundef nonnull align 8 dereferenceable(96) %16) #3
  call void @llvm.lifetime.end.p0(i64 96, ptr %16) #3
  call void @llvm.lifetime.end.p0(i64 24, ptr %9) #3
  call void @llvm.lifetime.end.p0(i64 24, ptr %8) #3
  br label %76

76:                                               ; preds = %72
  %77 = load ptr, ptr %17, align 8
  %78 = load i32, ptr %18, align 4
  %79 = insertvalue { ptr, i32 } poison, ptr %77, 0
  %80 = insertvalue { ptr, i32 } %79, i32 %78, 1
  resume { ptr, i32 } %80
}