; Function Attrs: mustprogress uwtable
define hidden noundef zeroext i1 @_ZN2cv4face18FacemarkKazemiImpl15convertToActualENS_5Rect_IiEERNS_3MatE(ptr noundef nonnull readnone align 8 captures(none) dereferenceable(216) %0, i64 %1, i64 %2, ptr noundef nonnull align 8 dereferenceable(96) %3) local_unnamed_addr #11 align 2 personality ptr @__gxx_personality_v0 {
  %5 = alloca [3 x %"class.cv::Point_"], align 16
  %6 = alloca [3 x %"class.cv::Point_"], align 16
  %7 = alloca %"class.cv::Mat", align 8
  %.sroa.4.0.extract.shift = lshr i64 %1, 32
  %.sroa.4.0.extract.trunc = trunc nuw i64 %.sroa.4.0.extract.shift to i32
  %.sroa.9.8.extract.shift = lshr i64 %2, 32
  call void @llvm.lifetime.start.p0(i64 24, ptr nonnull %5) #28
  %.sroa.7.8.extract.trunc = trunc i64 %2 to i32
  call void @llvm.lifetime.start.p0(i64 24, ptr nonnull %6) #28
  %.sroa.0.0.extract.trunc = trunc i64 %1 to i32
  %.sroa.9.8.extract.trunc = trunc nuw i64 %.sroa.9.8.extract.shift to i32
  store i32 0, ptr %5, align 16
  %.sroa_idx24 = getelementptr inbounds nuw i8, ptr %5, i64 4
  store i32 0, ptr %.sroa_idx24, align 4
  %8 = getelementptr inbounds nuw i8, ptr %5, i64 8
  store i32 1065353216, ptr %8, align 8
  %.sroa_idx21 = getelementptr inbounds nuw i8, ptr %5, i64 12
  store i32 0, ptr %.sroa_idx21, align 4
  %9 = getelementptr inbounds nuw i8, ptr %5, i64 16
  store i32 0, ptr %9, align 16
  %.sroa_idx18 = getelementptr inbounds nuw i8, ptr %5, i64 20
  store i32 1065353216, ptr %.sroa_idx18, align 4
  %10 = sitofp i32 %.sroa.0.0.extract.trunc to float
  %11 = sitofp i32 %.sroa.4.0.extract.trunc to float
  store float %10, ptr %6, align 16
  %.sroa_idx15 = getelementptr inbounds nuw i8, ptr %6, i64 4
  store float %11, ptr %.sroa_idx15, align 4
  %12 = sitofp i32 %.sroa.7.8.extract.trunc to float
  %13 = fadd float %10, %12
  %14 = getelementptr inbounds nuw i8, ptr %6, i64 8
  store float %13, ptr %14, align 8
  %.sroa_idx12 = getelementptr inbounds nuw i8, ptr %6, i64 12
  store float %11, ptr %.sroa_idx12, align 4
  %15 = sitofp i32 %.sroa.9.8.extract.trunc to float
  %16 = tail call float @llvm.fmuladd.f32(float %15, float 0x3FF4CCCCC0000000, float %11)
  %17 = getelementptr inbounds nuw i8, ptr %6, i64 16
  store float %10, ptr %17, align 16
  %.sroa_idx11 = getelementptr inbounds nuw i8, ptr %6, i64 20
  store float %16, ptr %.sroa_idx11, align 4
  call void @llvm.lifetime.start.p0(i64 96, ptr nonnull %7) #28
  call void @_ZN2cv18getAffineTransformEPKNS_6Point_IfEES3_(ptr dead_on_unwind nonnull writable sret(%"class.cv::Mat") align 8 %7, ptr noundef nonnull %5, ptr noundef nonnull %6)
  %18 = invoke noundef nonnull align 8 dereferenceable(96) ptr @_ZN2cv3MataSEOS0_(ptr noundef nonnull align 8 dereferenceable(96) %3, ptr noundef nonnull align 8 dereferenceable(96) %7)
          to label %19 unwind label %20

19:                                               ; preds = %4
  call void @_ZN2cv3MatD1Ev(ptr noundef nonnull align 8 dereferenceable(96) %7) #28
  call void @llvm.lifetime.end.p0(i64 96, ptr nonnull %7) #28
  call void @llvm.lifetime.end.p0(i64 24, ptr nonnull %6) #28
  call void @llvm.lifetime.end.p0(i64 24, ptr nonnull %5) #28
  ret i1 true

20:                                               ; preds = %4
  %21 = landingpad { ptr, i32 }
          cleanup
  call void @_ZN2cv3MatD1Ev(ptr noundef nonnull align 8 dereferenceable(96) %7) #28
  call void @llvm.lifetime.end.p0(i64 96, ptr nonnull %7) #28
  call void @llvm.lifetime.end.p0(i64 24, ptr nonnull %6) #28
  call void @llvm.lifetime.end.p0(i64 24, ptr nonnull %5) #28
  resume { ptr, i32 } %21
}